; Function Attrs: mustprogress uwtable
define i32 @ucnv_getCCSID_77(ptr noundef %0, ptr noundef %1) local_unnamed_addr #0 {
  %3 = load i32, ptr %1, align 4, !tbaa !3
  %4 = icmp slt i32 %3, 1
  br i1 %4, label %5, label %33

5:                                                ; preds = %2
  %6 = getelementptr inbounds nuw i8, ptr %0, i64 48
  %7 = load ptr, ptr %6, align 8, !tbaa !8
  %8 = getelementptr inbounds nuw i8, ptr %7, i64 16
  %9 = load ptr, ptr %8, align 8, !tbaa !44
  %10 = getelementptr inbounds nuw i8, ptr %9, i64 64
  %11 = load i32, ptr %10, align 4, !tbaa !72
  %12 = icmp eq i32 %11, 0
  br i1 %12, label %13, label %33

13:                                               ; preds = %5
  %14 = getelementptr inbounds nuw i8, ptr %7, i64 32
  %15 = load ptr, ptr %14, align 8, !tbaa !15
  %16 = getelementptr inbounds nuw i8, ptr %15, i64 96
  %17 = load ptr, ptr %16, align 8, !tbaa !71
  %.not10.i = icmp eq ptr %17, null
  br i1 %.not10.i, label %20, label %18

18:                                               ; preds = %13
  %19 = tail call noundef ptr %17(ptr noundef nonnull %0)
  %.not11.not.i = icmp eq ptr %19, null
  br i1 %.not11.not.i, label %._crit_edge.i, label %ucnv_getName_77.exit

._crit_edge.i:                                    ; preds = %18
  %.pre.i = load ptr, ptr %6, align 8, !tbaa !8
  %.phi.trans.insert = getelementptr inbounds nuw i8, ptr %.pre.i, i64 16
  %.pre = load ptr, ptr %.phi.trans.insert, align 8, !tbaa !44
  br label %20

20:                                               ; preds = %._crit_edge.i, %13
  %21 = phi ptr [ %.pre, %._crit_edge.i ], [ %9, %13 ]
  %22 = getelementptr inbounds nuw i8, ptr %21, i64 4
  br label %ucnv_getName_77.exit

ucnv_getName_77.exit:                             ; preds = %18, %20
  %.08.i = phi ptr [ %19, %18 ], [ %22, %20 ]
  %23 = tail call ptr @ucnv_getStandardName_77(ptr noundef nonnull %.08.i, ptr noundef nonnull @.str, ptr noundef nonnull %1)
  %24 = load i32, ptr %1, align 4, !tbaa !3
  %25 = icmp slt i32 %24, 1
  %26 = icmp ne ptr %23, null
  %or.cond = select i1 %25, i1 %26, i1 false
  br i1 %or.cond, label %27, label %33

27:                                               ; preds = %ucnv_getName_77.exit
  %28 = tail call noundef ptr @strchr(ptr noundef nonnull dereferenceable(1) %23, i32 noundef 45) #18
  %.not18 = icmp eq ptr %28, null
  br i1 %.not18, label %33, label %29

29:                                               ; preds = %27
  %30 = getelementptr inbounds nuw i8, ptr %28, i64 1
  %31 = tail call i64 @strtol(ptr noundef nonnull captures(none) %30, ptr noundef null, i32 noundef 10) #16
  %32 = trunc i64 %31 to i32
  br label %33

33:                                               ; preds = %5, %27, %29, %ucnv_getName_77.exit, %2
  %.0 = phi i32 [ -1, %2 ], [ %11, %5 ], [ 0, %ucnv_getName_77.exit ], [ %32, %29 ], [ 0, %27 ]
  ret i32 %.0
}